; Function Attrs: mustprogress uwtable
define noundef ptr @_ZN5Yosys3AST7AstNode12mkconst_bitsERKSt6vectorINS_5RTLIL5StateESaIS4_EEbb(ptr noundef nonnull align 8 dereferenceable(24) %0, i1 noundef zeroext %1, i1 noundef zeroext %2) local_unnamed_addr #4 align 2 personality ptr @__gxx_personality_v0 {
  %4 = tail call noalias noundef nonnull dereferenceable(288) ptr @_Znwm(i64 noundef 288) #36
  invoke void @_ZN5Yosys3AST7AstNodeC1ENS0_11AstNodeTypeEPS1_S3_S3_S3_(ptr noundef nonnull align 8 dereferenceable(284) %4, i32 noundef 16, ptr noundef null, ptr noundef null, ptr noundef null, ptr noundef null)
          to label %5 unwind label %31

5:                                                ; preds = %3
  %6 = zext i1 %1 to i8
  %7 = getelementptr inbounds i8, ptr %4, i64 140
  store i8 %6, ptr %7, align 4
  %8 = getelementptr inbounds i8, ptr %4, i64 112
  %9 = tail call noundef nonnull align 8 dereferenceable(24) ptr @_ZNSt6vectorIN5Yosys5RTLIL5StateESaIS2_EEaSERKS4_(ptr noundef nonnull align 8 dereferenceable(24) %8, ptr noundef nonnull align 8 dereferenceable(24) %0)
  %10 = getelementptr inbounds i8, ptr %4, i64 120
  %11 = getelementptr inbounds i8, ptr %4, i64 164
  %.pre32 = load ptr, ptr %10, align 8
  %.pre33 = load ptr, ptr %8, align 8
  %12 = ptrtoint ptr %.pre32 to i64
  %13 = ptrtoint ptr %.pre33 to i64
  %14 = sub i64 %12, %13
  br i1 %1, label %.split.preheader, label %.split.us

.split.preheader:                                 ; preds = %5
  %.not = icmp eq ptr %.pre33, %.pre32
  %15 = getelementptr inbounds i8, ptr %.pre32, i64 -1
  br label %.split

.split.us:                                        ; preds = %5, %26
  %.026.us = phi i64 [ %27, %26 ], [ 0, %5 ]
  %16 = icmp ult i64 %.026.us, %14
  br i1 %16, label %17, label %26

17:                                               ; preds = %.split.us
  %18 = getelementptr inbounds i8, ptr %.pre33, i64 %.026.us
  %19 = load i8, ptr %18, align 1
  %20 = icmp eq i8 %19, 1
  %21 = zext i1 %20 to i32
  %22 = trunc i64 %.026.us to i32
  %23 = shl nuw i32 %21, %22
  %24 = load i32, ptr %11, align 4
  %25 = or i32 %23, %24
  store i32 %25, ptr %11, align 4
  br label %26

26:                                               ; preds = %.split.us, %17
  %27 = add nuw nsw i64 %.026.us, 1
  %exitcond.not = icmp eq i64 %27, 32
  br i1 %exitcond.not, label %.split28.us, label %.split.us, !llvm.loop !26

.split:                                           ; preds = %.split.preheader, %41
  %.026 = phi i64 [ %42, %41 ], [ 0, %.split.preheader ]
  %28 = icmp ult i64 %.026, %14
  br i1 %28, label %29, label %33

29:                                               ; preds = %.split
  %30 = getelementptr inbounds i8, ptr %.pre33, i64 %.026
  br label %.sink.split

31:                                               ; preds = %3
  %32 = landingpad { ptr, i32 }
          cleanup
  tail call void @_ZdlPv(ptr noundef nonnull %4) #33
  resume { ptr, i32 } %32

33:                                               ; preds = %.split
  br i1 %.not, label %41, label %.sink.split

.sink.split:                                      ; preds = %33, %29
  %.sink42 = phi ptr [ %30, %29 ], [ %15, %33 ]
  %34 = load i8, ptr %.sink42, align 1
  %35 = icmp eq i8 %34, 1
  %36 = zext i1 %35 to i32
  %37 = trunc i64 %.026 to i32
  %38 = shl nuw i32 %36, %37
  %39 = load i32, ptr %11, align 4
  %40 = or i32 %38, %39
  store i32 %40, ptr %11, align 4
  br label %41

41:                                               ; preds = %.sink.split, %33
  %42 = add nuw nsw i64 %.026, 1
  %exitcond30.not = icmp eq i64 %42, 32
  br i1 %exitcond30.not, label %.split28.us, label %.split, !llvm.loop !26

.split28.us:                                      ; preds = %26, %41
  %43 = zext i1 %2 to i8
  %44 = getelementptr inbounds i8, ptr %4, i64 144
  store i8 1, ptr %44, align 8
  %45 = trunc i64 %14 to i32
  %46 = add i32 %45, -1
  %47 = getelementptr inbounds i8, ptr %4, i64 156
  store i32 %46, ptr %47, align 4
  %48 = getelementptr inbounds i8, ptr %4, i64 160
  store i32 0, ptr %48, align 8
  %49 = getelementptr inbounds i8, ptr %4, i64 147
  store i8 %43, ptr %49, align 1
  ret ptr %4
}